; Function Attrs: mustprogress nofree nounwind willreturn memory(write, inaccessiblemem: readwrite) uwtable
define noalias noundef ptr @Mop_ManAlloc(i32 noundef %0, i32 noundef %1, i32 noundef %2) local_unnamed_addr #0 {
  %4 = tail call noalias dereferenceable_or_null(48) ptr @calloc(i64 noundef 1, i64 noundef 48) #21
  store i32 %0, ptr %4, align 8, !tbaa !3
  %5 = getelementptr inbounds nuw i8, ptr %4, i64 4
  store i32 %1, ptr %5, align 4, !tbaa !11
  %6 = ashr i32 %0, 5
  %7 = and i32 %0, 31
  %8 = icmp ne i32 %7, 0
  %9 = zext i1 %8 to i32
  %10 = add nsw i32 %6, %9
  %11 = getelementptr inbounds nuw i8, ptr %4, i64 8
  store i32 %10, ptr %11, align 8, !tbaa !12
  %12 = ashr i32 %1, 6
  %13 = and i32 %1, 63
  %14 = icmp ne i32 %13, 0
  %15 = zext i1 %14 to i32
  %16 = add nsw i32 %12, %15
  %17 = getelementptr inbounds nuw i8, ptr %4, i64 12
  store i32 %16, ptr %17, align 4, !tbaa !13
  %18 = shl nsw i32 %10, 1
  %19 = mul nsw i32 %18, %2
  %20 = tail call noalias dereferenceable_or_null(16) ptr @malloc(i64 noundef 16) #22
  %21 = add i32 %19, -1
  %or.cond.i.i = icmp ult i32 %21, 15
  %spec.store.select.i.i = select i1 %or.cond.i.i, i32 16, i32 %19
  store i32 %spec.store.select.i.i, ptr %20, align 8, !tbaa !14
  %.not.i.i = icmp eq i32 %spec.store.select.i.i, 0
  br i1 %.not.i.i, label %Vec_WrdStart.exit, label %22

22:                                               ; preds = %3
  %23 = sext i32 %spec.store.select.i.i to i64
  %24 = shl nsw i64 %23, 3
  %25 = tail call noalias ptr @malloc(i64 noundef %24) #22
  br label %Vec_WrdStart.exit

Vec_WrdStart.exit:                                ; preds = %3, %22
  %26 = phi ptr [ %25, %22 ], [ null, %3 ]
  %27 = getelementptr inbounds nuw i8, ptr %20, i64 4
  %28 = getelementptr inbounds nuw i8, ptr %20, i64 8
  store ptr %26, ptr %28, align 8, !tbaa !17
  store i32 %19, ptr %27, align 4, !tbaa !18
  %29 = sext i32 %19 to i64
  %30 = shl nsw i64 %29, 3
  tail call void @llvm.memset.p0.i64(ptr align 8 %26, i8 0, i64 %30, i1 false)
  %31 = getelementptr inbounds nuw i8, ptr %4, i64 16
  store ptr %20, ptr %31, align 8, !tbaa !19
  %32 = shl nsw i32 %16, 1
  %33 = mul nsw i32 %32, %2
  %34 = tail call noalias dereferenceable_or_null(16) ptr @malloc(i64 noundef 16) #22
  %35 = add i32 %33, -1
  %or.cond.i.i18 = icmp ult i32 %35, 15
  %spec.store.select.i.i19 = select i1 %or.cond.i.i18, i32 16, i32 %33
  store i32 %spec.store.select.i.i19, ptr %34, align 8, !tbaa !14
  %.not.i.i20 = icmp eq i32 %spec.store.select.i.i19, 0
  br i1 %.not.i.i20, label %Vec_WrdStart.exit21, label %36

36:                                               ; preds = %Vec_WrdStart.exit
  %37 = sext i32 %spec.store.select.i.i19 to i64
  %38 = shl nsw i64 %37, 3
  %39 = tail call noalias ptr @malloc(i64 noundef %38) #22
  br label %Vec_WrdStart.exit21

Vec_WrdStart.exit21:                              ; preds = %Vec_WrdStart.exit, %36
  %40 = phi ptr [ %39, %36 ], [ null, %Vec_WrdStart.exit ]
  %41 = getelementptr inbounds nuw i8, ptr %34, i64 4
  %42 = getelementptr inbounds nuw i8, ptr %34, i64 8
  store ptr %40, ptr %42, align 8, !tbaa !17
  store i32 %33, ptr %41, align 4, !tbaa !18
  %43 = sext i32 %33 to i64
  %44 = shl nsw i64 %43, 3
  tail call void @llvm.memset.p0.i64(ptr align 8 %40, i8 0, i64 %44, i1 false)
  %45 = getelementptr inbounds nuw i8, ptr %4, i64 24
  store ptr %34, ptr %45, align 8, !tbaa !20
  %46 = shl nsw i32 %2, 1
  %47 = tail call noalias dereferenceable_or_null(16) ptr @malloc(i64 noundef 16) #22
  %48 = add i32 %46, -1
  %or.cond.i = icmp ult i32 %48, 15
  %spec.store.select.i = select i1 %or.cond.i, i32 16, i32 %46
  %49 = getelementptr inbounds nuw i8, ptr %47, i64 4
  store i32 0, ptr %49, align 4, !tbaa !21
  store i32 %spec.store.select.i, ptr %47, align 8, !tbaa !24
  %.not.i = icmp eq i32 %spec.store.select.i, 0
  br i1 %.not.i, label %Vec_IntAlloc.exit, label %50

50:                                               ; preds = %Vec_WrdStart.exit21
  %51 = sext i32 %spec.store.select.i to i64
  %52 = shl nsw i64 %51, 2
  %53 = tail call noalias ptr @malloc(i64 noundef %52) #22
  br label %Vec_IntAlloc.exit

Vec_IntAlloc.exit:                                ; preds = %Vec_WrdStart.exit21, %50
  %54 = phi ptr [ %53, %50 ], [ null, %Vec_WrdStart.exit21 ]
  %55 = getelementptr inbounds nuw i8, ptr %47, i64 8
  store ptr %54, ptr %55, align 8, !tbaa !25
  %56 = getelementptr inbounds nuw i8, ptr %4, i64 32
  store ptr %47, ptr %56, align 8, !tbaa !26
  %57 = tail call noalias dereferenceable_or_null(16) ptr @malloc(i64 noundef 16) #22
  %58 = getelementptr inbounds nuw i8, ptr %57, i64 4
  store i32 0, ptr %58, align 4, !tbaa !21
  store i32 %spec.store.select.i, ptr %57, align 8, !tbaa !24
  br i1 %.not.i, label %Vec_IntAlloc.exit25, label %59

59:                                               ; preds = %Vec_IntAlloc.exit
  %60 = sext i32 %spec.store.select.i to i64
  %61 = shl nsw i64 %60, 2
  %62 = tail call noalias ptr @malloc(i64 noundef %61) #22
  br label %Vec_IntAlloc.exit25

Vec_IntAlloc.exit25:                              ; preds = %Vec_IntAlloc.exit, %59
  %63 = phi ptr [ %62, %59 ], [ null, %Vec_IntAlloc.exit ]
  %64 = getelementptr inbounds nuw i8, ptr %57, i64 8
  store ptr %63, ptr %64, align 8, !tbaa !25
  %65 = getelementptr inbounds nuw i8, ptr %4, i64 40
  store ptr %57, ptr %65, align 8, !tbaa !27
  ret ptr %4
}